Certificate:
    Data:
        Version: 3 (0x2)
        Serial Number: 2 (0x2)
        Signature Algorithm: md5WithRSAEncryption
        Issuer: C=US, ST=WI, L=Madison, O=sampdb, OU=CA, CN=sampdb
        Validity
            Not Before: May 17 17:02:09 2008 GMT
            Not After : May 15 17:02:09 2018 GMT
        Subject: C=US, ST=WI, L=Madison, O=sampdb, OU=client, CN=sampdb
        Subject Public Key Info:
            Public Key Algorithm: rsaEncryption
            RSA Public Key: (1024 bit)
                Modulus (1024 bit):
                    00:b0:98:50:1e:ba:db:80:dd:09:59:37:be:13:55:
                    6a:72:68:3d:ff:ba:14:fe:9d:3b:de:bd:8a:16:f4:
                    f4:cd:d1:e0:87:0a:37:98:b6:58:67:2f:50:d2:70:
                    8e:26:e8:3e:c2:d5:84:90:b3:b4:c9:7f:1d:6d:8e:
                    77:e1:84:07:df:c2:5c:cc:17:5b:54:4c:65:14:17:
                    82:82:f7:68:a4:c8:6c:cf:93:1a:3a:e5:f8:13:be:
                    8c:a7:61:d0:62:70:62:0a:6b:dd:51:e3:f3:11:7c:
                    54:ca:41:7a:26:e4:e6:fd:cc:17:59:0d:39:10:d7:
                    a1:f1:f2:72:64:79:78:d8:fd
                Exponent: 65537 (0x10001)
        X509v3 extensions:
            X509v3 Basic Constraints: 
                CA:FALSE
            Netscape Comment: 
                OpenSSL Generated Certificate
            X509v3 Subject Key Identifier: 
                B7:E2:88:EF:69:34:A8:0C:B5:59:8F:F6:9D:6E:46:99:E9:3D:E2:65
            X509v3 Authority Key Identifier: 
                keyid:15:92:D2:D0:A1:3A:14:24:B2:6D:1D:D6:1A:24:62:EA:7A:05:85:84
                DirName:/C=US/ST=WI/L=Madison/O=sampdb/OU=CA/CN=sampdb
                serial:91:31:96:CF:20:CE:0B:A0

    Signature Algorithm: md5WithRSAEncryption
        4e:ab:41:c7:3a:74:7e:7c:b0:3a:42:88:c2:f5:9e:ae:75:98:
        a0:f4:2b:bc:4e:c0:3c:f8:d9:1e:ec:e4:60:41:a3:05:e7:e5:
        35:7a:af:b8:01:e9:c1:da:ca:80:0d:5d:1e:12:56:04:cf:99:
        31:e0:fc:8c:3f:d7:77:a3:b8:42:13:ae:eb:f7:55:52:5c:61:
        5b:2e:9b:a9:41:ef:8a:fd:f1:9a:3f:ae:23:61:38:e8:59:4b:
        3d:c0:18:58:ca:5a:95:32:41:2c:19:d1:86:2e:38:5c:71:1f:
        f2:54:33:a4:44:f4:d7:e9:63:84:be:cf:c2:db:8c:90:0b:d3:
        fb:f0
-----BEGIN CERTIFICATE-----
MIIDHDCCAoWgAwIBAgIBAjANBgkqhkiG9w0BAQQFADBbMQswCQYDVQQGEwJVUzEL
MAkGA1UECBMCV0kxEDAOBgNVBAcTB01hZGlzb24xDzANBgNVBAoTBnNhbXBkYjEL
MAkGA1UECxMCQ0ExDzANBgNVBAMTBnNhbXBkYjAeFw0wODA1MTcxNzAyMDlaFw0x
ODA1MTUxNzAyMDlaMF8xCzAJBgNVBAYTAlVTMQswCQYDVQQIEwJXSTEQMA4GA1UE
BxMHTWFkaXNvbjEPMA0GA1UEChMGc2FtcGRiMQ8wDQYDVQQLEwZjbGllbnQxDzAN
BgNVBAMTBnNhbXBkYjCBnzANBgkqhkiG9w0BAQEFAAOBjQAwgYkCgYEAsJhQHrrb
gN0JWTe+E1Vqcmg9/7oU/p073r2KFvT0zdHghwo3mLZYZy9Q0nCOJug+wtWEkLO0
yX8dbY534YQH38JczBdbVExlFBeCgvdopMhsz5MaOuX4E76Mp2HQYnBiCmvdUePz
EXxUykF6JuTm/cwXWQ05ENeh8fJyZHl42P0CAwEAAaOB6zCB6DAJBgNVHRMEAjAA
MCwGCWCGSAGG+EIBDQQfFh1PcGVuU1NMIEdlbmVyYXRlZCBDZXJ0aWZpY2F0ZTAd
BgNVHQ4EFgQUt+KI72k0qAy1WY/2nW5Gmek94mUwgY0GA1UdIwSBhTCBgoAUFZLS
0KE6FCSybR3WGiRi6noFhYShX6RdMFsxCzAJBgNVBAYTAlVTMQswCQYDVQQIEwJX
STEQMA4GA1UEBxMHTWFkaXNvbjEPMA0GA1UEChMGc2FtcGRiMQswCQYDVQQLEwJD
QTEPMA0GA1UEAxMGc2FtcGRiggkAkTGWzyDOC6AwDQYJKoZIhvcNAQEEBQADgYEA
TqtBxzp0fnywOkKIwvWernWYoPQrvE7APPjZHuzkYEGjBeflNXqvuAHpwdrKgA1d
HhJWBM+ZMeD8jD/Xd6O4QhOu6/dVUlxhWy6bqUHviv3xmj+uI2E46FlLPcAYWMpa
lTJBLBnRhi44XHEf8lQzpET01+ljhL7PwtuMkAvT+/A=
-----END CERTIFICATE-----
