Certificate:
    Data:
        Version: 3 (0x2)
        Serial Number: 1 (0x1)
        Signature Algorithm: md5WithRSAEncryption
        Issuer: C=US, ST=WI, L=Madison, O=sampdb, OU=CA, CN=sampdb
        Validity
            Not Before: May 17 17:02:08 2008 GMT
            Not After : May 15 17:02:08 2018 GMT
        Subject: C=US, ST=WI, L=Madison, O=sampdb, OU=server, CN=sampdb
        Subject Public Key Info:
            Public Key Algorithm: rsaEncryption
            RSA Public Key: (1024 bit)
                Modulus (1024 bit):
                    00:be:d7:98:ec:64:3f:79:f0:5b:bc:fb:48:1c:42:
                    41:9a:f4:be:cd:2d:b5:81:f4:0f:be:f4:83:c0:5d:
                    49:6b:11:7a:41:61:71:47:f3:5e:21:ab:4a:d7:4e:
                    10:94:5b:aa:7f:64:cc:79:a5:36:03:38:58:bc:d4:
                    db:ba:02:09:95:9c:fc:f0:79:47:9a:9b:2d:99:de:
                    b2:c3:9b:85:32:0b:7f:49:40:63:69:91:6d:12:56:
                    8e:bb:72:8d:1a:e7:16:b2:b6:eb:bc:33:b9:c7:3c:
                    07:b2:4e:5e:11:36:0e:31:f8:b4:c6:46:17:4e:af:
                    68:5b:2d:04:67:39:8d:c8:4b
                Exponent: 65537 (0x10001)
        X509v3 extensions:
            X509v3 Basic Constraints: 
                CA:FALSE
            Netscape Comment: 
                OpenSSL Generated Certificate
            X509v3 Subject Key Identifier: 
                6F:05:11:14:98:2C:6D:A4:32:A5:AF:12:6D:6E:4E:8E:68:D6:3B:0F
            X509v3 Authority Key Identifier: 
                keyid:15:92:D2:D0:A1:3A:14:24:B2:6D:1D:D6:1A:24:62:EA:7A:05:85:84
                DirName:/C=US/ST=WI/L=Madison/O=sampdb/OU=CA/CN=sampdb
                serial:91:31:96:CF:20:CE:0B:A0

    Signature Algorithm: md5WithRSAEncryption
        3f:82:de:da:c8:2d:ff:20:50:6b:45:09:0d:d1:68:83:4f:91:
        8e:d7:7b:28:de:9d:61:53:06:d9:53:9f:14:55:05:d0:41:f9:
        61:09:2a:9d:82:c6:60:e6:67:6f:20:15:bb:0b:aa:28:93:cc:
        05:1d:dd:3f:17:20:1b:ee:25:1c:ad:1b:ee:a9:48:35:18:dd:
        f7:ad:89:3c:8a:fd:46:3a:d1:56:13:53:6c:ef:e6:6b:27:13:
        48:79:4e:9b:15:79:16:07:79:c6:64:46:9b:70:71:fa:b3:ee:
        54:f4:21:36:36:b4:d6:a0:b5:a5:57:a8:50:0d:04:98:6f:f4:
        7a:fd
-----BEGIN CERTIFICATE-----
MIIDHDCCAoWgAwIBAgIBATANBgkqhkiG9w0BAQQFADBbMQswCQYDVQQGEwJVUzEL
MAkGA1UECBMCV0kxEDAOBgNVBAcTB01hZGlzb24xDzANBgNVBAoTBnNhbXBkYjEL
MAkGA1UECxMCQ0ExDzANBgNVBAMTBnNhbXBkYjAeFw0wODA1MTcxNzAyMDhaFw0x
ODA1MTUxNzAyMDhaMF8xCzAJBgNVBAYTAlVTMQswCQYDVQQIEwJXSTEQMA4GA1UE
BxMHTWFkaXNvbjEPMA0GA1UEChMGc2FtcGRiMQ8wDQYDVQQLEwZzZXJ2ZXIxDzAN
BgNVBAMTBnNhbXBkYjCBnzANBgkqhkiG9w0BAQEFAAOBjQAwgYkCgYEAvteY7GQ/
efBbvPtIHEJBmvS+zS21gfQPvvSDwF1JaxF6QWFxR/NeIatK104QlFuqf2TMeaU2
AzhYvNTbugIJlZz88HlHmpstmd6yw5uFMgt/SUBjaZFtElaOu3KNGucWsrbrvDO5
xzwHsk5eETYOMfi0xkYXTq9oWy0EZzmNyEsCAwEAAaOB6zCB6DAJBgNVHRMEAjAA
MCwGCWCGSAGG+EIBDQQfFh1PcGVuU1NMIEdlbmVyYXRlZCBDZXJ0aWZpY2F0ZTAd
BgNVHQ4EFgQUbwURFJgsbaQypa8SbW5OjmjWOw8wgY0GA1UdIwSBhTCBgoAUFZLS
0KE6FCSybR3WGiRi6noFhYShX6RdMFsxCzAJBgNVBAYTAlVTMQswCQYDVQQIEwJX
STEQMA4GA1UEBxMHTWFkaXNvbjEPMA0GA1UEChMGc2FtcGRiMQswCQYDVQQLEwJD
QTEPMA0GA1UEAxMGc2FtcGRiggkAkTGWzyDOC6AwDQYJKoZIhvcNAQEEBQADgYEA
P4Le2sgt/yBQa0UJDdFog0+Rjtd7KN6dYVMG2VOfFFUF0EH5YQkqnYLGYOZnbyAV
uwuqKJPMBR3dPxcgG+4lHK0b7qlINRjd962JPIr9RjrRVhNTbO/maycTSHlOmxV5
Fgd5xmRGm3Bx+rPuVPQhNja01qC1pVeoUA0EmG/0ev0=
-----END CERTIFICATE-----
